target datalayout = "e-m:e-p270:32:32-p271:32:32-p272:64:64-i64:64-i128:128-f80:128-n8:16:32:64-S128"
target triple = "x86_64-pc-linux-gnu"

%struct.dlist_node = type { ptr, ptr }
%struct.PgStat_TableStatus = type { i32, i8, ptr, %struct.PgStat_TableCounts, ptr }
%struct.PgStat_TableCounts = type { i64, i64, i64, i64, i64, i64, i64, i64, i8, i64, i64, i64, i64, i64 }
%struct.PgStat_TableXactStatus = type { i64, i64, i64, i8, i64, i64, i64, i32, ptr, ptr, ptr }
%struct.PgStat_SubXactStatus = type { i32, ptr, %struct.dclist_head, ptr }
%struct.dclist_head = type { %struct.dlist_head, i32 }
%struct.dlist_head = type { %struct.dlist_node }
%struct.TwoPhasePgStatRecord = type { i64, i64, i64, i64, i64, i64, i32, i8, i8 }

; Function Attrs: nounwind uwtable
define dso_local void @AtPrepare_PgStat_Relations(ptr noundef %0) #0 {
  %2 = alloca ptr, align 8
  %3 = alloca ptr, align 8
  %4 = alloca ptr, align 8
  %5 = alloca %struct.TwoPhasePgStatRecord, align 8
  store ptr %0, ptr %2, align 8
  call void @llvm.lifetime.start.p0(i64 8, ptr %3) #6
  %6 = load ptr, ptr %2, align 8
  %7 = getelementptr inbounds nuw %struct.PgStat_SubXactStatus, ptr %6, i32 0, i32 3
  %8 = load ptr, ptr %7, align 8
  store ptr %8, ptr %3, align 8
  br label %9

9:                                                ; preds = %56, %1
  %10 = load ptr, ptr %3, align 8
  %11 = icmp ne ptr %10, null
  br i1 %11, label %12, label %60

12:                                               ; preds = %9
  call void @llvm.lifetime.start.p0(i64 8, ptr %4) #6
  call void @llvm.lifetime.start.p0(i64 56, ptr %5) #6
  %13 = load ptr, ptr %3, align 8
  %14 = getelementptr inbounds nuw %struct.PgStat_TableXactStatus, ptr %13, i32 0, i32 9
  %15 = load ptr, ptr %14, align 8
  store ptr %15, ptr %4, align 8
  %16 = load ptr, ptr %3, align 8
  %17 = getelementptr inbounds nuw %struct.PgStat_TableXactStatus, ptr %16, i32 0, i32 0
  %18 = load i64, ptr %17, align 8
  %19 = getelementptr inbounds nuw %struct.TwoPhasePgStatRecord, ptr %5, i32 0, i32 0
  store i64 %18, ptr %19, align 8
  %20 = load ptr, ptr %3, align 8
  %21 = getelementptr inbounds nuw %struct.PgStat_TableXactStatus, ptr %20, i32 0, i32 1
  %22 = load i64, ptr %21, align 8
  %23 = getelementptr inbounds nuw %struct.TwoPhasePgStatRecord, ptr %5, i32 0, i32 1
  store i64 %22, ptr %23, align 8
  %24 = load ptr, ptr %3, align 8
  %25 = getelementptr inbounds nuw %struct.PgStat_TableXactStatus, ptr %24, i32 0, i32 2
  %26 = load i64, ptr %25, align 8
  %27 = getelementptr inbounds nuw %struct.TwoPhasePgStatRecord, ptr %5, i32 0, i32 2
  store i64 %26, ptr %27, align 8
  %28 = load ptr, ptr %3, align 8
  %29 = getelementptr inbounds nuw %struct.PgStat_TableXactStatus, ptr %28, i32 0, i32 4
  %30 = load i64, ptr %29, align 8
  %31 = getelementptr inbounds nuw %struct.TwoPhasePgStatRecord, ptr %5, i32 0, i32 3
  store i64 %30, ptr %31, align 8
  %32 = load ptr, ptr %3, align 8
  %33 = getelementptr inbounds nuw %struct.PgStat_TableXactStatus, ptr %32, i32 0, i32 5
  %34 = load i64, ptr %33, align 8
  %35 = getelementptr inbounds nuw %struct.TwoPhasePgStatRecord, ptr %5, i32 0, i32 4
  store i64 %34, ptr %35, align 8
  %36 = load ptr, ptr %3, align 8
  %37 = getelementptr inbounds nuw %struct.PgStat_TableXactStatus, ptr %36, i32 0, i32 6
  %38 = load i64, ptr %37, align 8
  %39 = getelementptr inbounds nuw %struct.TwoPhasePgStatRecord, ptr %5, i32 0, i32 5
  store i64 %38, ptr %39, align 8
  %40 = load ptr, ptr %4, align 8
  %41 = getelementptr inbounds nuw %struct.PgStat_TableStatus, ptr %40, i32 0, i32 0
  %42 = load i32, ptr %41, align 8
  %43 = getelementptr inbounds nuw %struct.TwoPhasePgStatRecord, ptr %5, i32 0, i32 6
  store i32 %42, ptr %43, align 8
  %44 = load ptr, ptr %4, align 8
  %45 = getelementptr inbounds nuw %struct.PgStat_TableStatus, ptr %44, i32 0, i32 1
  %46 = load i8, ptr %45, align 4, !range !4, !noundef !5
  %47 = trunc i8 %46 to i1
  %48 = getelementptr inbounds nuw %struct.TwoPhasePgStatRecord, ptr %5, i32 0, i32 7
  %49 = zext i1 %47 to i8
  store i8 %49, ptr %48, align 4
  %50 = load ptr, ptr %3, align 8
  %51 = getelementptr inbounds nuw %struct.PgStat_TableXactStatus, ptr %50, i32 0, i32 3
  %52 = load i8, ptr %51, align 8, !range !4, !noundef !5
  %53 = trunc i8 %52 to i1
  %54 = getelementptr inbounds nuw %struct.TwoPhasePgStatRecord, ptr %5, i32 0, i32 8
  %55 = zext i1 %53 to i8
  store i8 %55, ptr %54, align 1
  call void @RegisterTwoPhaseRecord(i8 noundef zeroext 2, i16 noundef zeroext 0, ptr noundef %5, i32 noundef 56)
  call void @llvm.lifetime.end.p0(i64 56, ptr %5) #6
  call void @llvm.lifetime.end.p0(i64 8, ptr %4) #6
  br label %56

56:                                               ; preds = %12
  %57 = load ptr, ptr %3, align 8
  %58 = getelementptr inbounds nuw %struct.PgStat_TableXactStatus, ptr %57, i32 0, i32 10
  %59 = load ptr, ptr %58, align 8
  store ptr %59, ptr %3, align 8
  br label %9, !llvm.loop !11

60:                                               ; preds = %9
  call void @llvm.lifetime.end.p0(i64 8, ptr %3) #6
  ret void
}