; Function Attrs: nounwind uwtable
define dso_local void @AtPrepare_PgStat_Relations(ptr noundef readonly captures(none) %0) local_unnamed_addr #0 {
  %2 = alloca %struct.TwoPhasePgStatRecord, align 8
  %3 = getelementptr inbounds nuw i8, ptr %0, i64 40
  %.013 = load ptr, ptr %3, align 8
  %.not14 = icmp eq ptr %.013, null
  br i1 %.not14, label %._crit_edge, label %.lr.ph

.lr.ph:                                           ; preds = %1
  %4 = getelementptr inbounds nuw i8, ptr %2, i64 8
  %5 = getelementptr inbounds nuw i8, ptr %2, i64 16
  %6 = getelementptr inbounds nuw i8, ptr %2, i64 24
  %7 = getelementptr inbounds nuw i8, ptr %2, i64 32
  %8 = getelementptr inbounds nuw i8, ptr %2, i64 40
  %9 = getelementptr inbounds nuw i8, ptr %2, i64 48
  %10 = getelementptr inbounds nuw i8, ptr %2, i64 52
  %11 = getelementptr inbounds nuw i8, ptr %2, i64 53
  br label %12

12:                                               ; preds = %.lr.ph, %12
  %.015 = phi ptr [ %.013, %.lr.ph ], [ %.0, %12 ]
  call void @llvm.lifetime.start.p0(i64 56, ptr nonnull %2) #9
  %13 = getelementptr inbounds nuw i8, ptr %.015, i64 72
  %14 = load ptr, ptr %13, align 8
  %15 = load i64, ptr %.015, align 8
  store i64 %15, ptr %2, align 8
  %16 = getelementptr inbounds nuw i8, ptr %.015, i64 8
  %17 = load i64, ptr %16, align 8
  store i64 %17, ptr %4, align 8
  %18 = getelementptr inbounds nuw i8, ptr %.015, i64 16
  %19 = load i64, ptr %18, align 8
  store i64 %19, ptr %5, align 8
  %20 = getelementptr inbounds nuw i8, ptr %.015, i64 32
  %21 = load i64, ptr %20, align 8
  store i64 %21, ptr %6, align 8
  %22 = getelementptr inbounds nuw i8, ptr %.015, i64 40
  %23 = load i64, ptr %22, align 8
  store i64 %23, ptr %7, align 8
  %24 = getelementptr inbounds nuw i8, ptr %.015, i64 48
  %25 = load i64, ptr %24, align 8
  store i64 %25, ptr %8, align 8
  %26 = load i32, ptr %14, align 8
  store i32 %26, ptr %9, align 8
  %27 = getelementptr inbounds nuw i8, ptr %14, i64 4
  %28 = load i8, ptr %27, align 4, !range !4, !noundef !5
  store i8 %28, ptr %10, align 4
  %29 = getelementptr inbounds nuw i8, ptr %.015, i64 24
  %30 = load i8, ptr %29, align 8, !range !4, !noundef !5
  store i8 %30, ptr %11, align 1
  call void @RegisterTwoPhaseRecord(i8 noundef zeroext 2, i16 noundef zeroext 0, ptr noundef nonnull %2, i32 noundef 56) #9
  call void @llvm.lifetime.end.p0(i64 56, ptr nonnull %2) #9
  %31 = getelementptr inbounds nuw i8, ptr %.015, i64 80
  %.0 = load ptr, ptr %31, align 8
  %.not = icmp eq ptr %.0, null
  br i1 %.not, label %._crit_edge, label %12, !llvm.loop !12

._crit_edge:                                      ; preds = %12, %1
  ret void
}